MPLINK 5.08, LINKER
Linker Map File - Created Thu Mar 15 07:56:20 2018

                                 Section Info
                  Section       Type    Address   Location Size(Bytes)
                ---------  ---------  ---------  ---------  ---------
                 RES_VECT       code   0x000000    program   0x000002
                   .cinit    romdata   0x000001    program   0x000004
                 ISR_VECT       code   0x000004    program   0x000056
                MAIN_PROG       code   0x00002f    program   0x0004ac
.config_2007_BUILD/DEFAULT/PRODUCTION/PRO.O       code   0x002007    program   0x000002
.config_2008_BUILD/DEFAULT/PRODUCTION/PRO.O       code   0x002008    program   0x000002
                  GPR_VAR      udata   0x000020       data   0x00000a



                              Program Memory Usage 
                               Start         End      
                           ---------   ---------      
                            0x000000    0x000002      
                            0x000004    0x000284      
                            0x002007    0x002008      
            646 out of 8455 program addresses used, program memory utilization is 7%



                              Symbols - Sorted by Name
                     Name    Address   Location    Storage File                     
                ---------  ---------  ---------  --------- ---------                
                   AMODE1   0x00014d    program     static C:\Users\kevin\Desktop\proyecto.X\pro.asm
                  AMODE10   0x000208    program     static C:\Users\kevin\Desktop\proyecto.X\pro.asm
                   AMODE2   0x000168    program     static C:\Users\kevin\Desktop\proyecto.X\pro.asm
                   AMODE3   0x00017c    program     static C:\Users\kevin\Desktop\proyecto.X\pro.asm
                   AMODE4   0x000190    program     static C:\Users\kevin\Desktop\proyecto.X\pro.asm
                   AMODE5   0x0001a4    program     static C:\Users\kevin\Desktop\proyecto.X\pro.asm
                  AMODE58   0x00025c    program     static C:\Users\kevin\Desktop\proyecto.X\pro.asm
                  AMODE59   0x000268    program     static C:\Users\kevin\Desktop\proyecto.X\pro.asm
                   AMODE6   0x0001b8    program     static C:\Users\kevin\Desktop\proyecto.X\pro.asm
                   AMODE7   0x0001cc    program     static C:\Users\kevin\Desktop\proyecto.X\pro.asm
                   AMODE8   0x0001e0    program     static C:\Users\kevin\Desktop\proyecto.X\pro.asm
                   AMODE9   0x0001f4    program     static C:\Users\kevin\Desktop\proyecto.X\pro.asm
                       AN   0x000015    program     static C:\Users\kevin\Desktop\proyecto.X\pro.asm
                CHECKT0IF   0x00005e    program     static C:\Users\kevin\Desktop\proyecto.X\pro.asm
                    DELAY   0x00027c    program     static C:\Users\kevin\Desktop\proyecto.X\pro.asm
                   DMODE1   0x000147    program     static C:\Users\kevin\Desktop\proyecto.X\pro.asm
                  DMODE10   0x000202    program     static C:\Users\kevin\Desktop\proyecto.X\pro.asm
                   DMODE2   0x000162    program     static C:\Users\kevin\Desktop\proyecto.X\pro.asm
                   DMODE3   0x000176    program     static C:\Users\kevin\Desktop\proyecto.X\pro.asm
                   DMODE4   0x00018a    program     static C:\Users\kevin\Desktop\proyecto.X\pro.asm
                   DMODE5   0x00019e    program     static C:\Users\kevin\Desktop\proyecto.X\pro.asm
                   DMODE6   0x0001b2    program     static C:\Users\kevin\Desktop\proyecto.X\pro.asm
                   DMODE7   0x0001c6    program     static C:\Users\kevin\Desktop\proyecto.X\pro.asm
                   DMODE8   0x0001da    program     static C:\Users\kevin\Desktop\proyecto.X\pro.asm
                   DMODE9   0x0001ee    program     static C:\Users\kevin\Desktop\proyecto.X\pro.asm
                       DY   0x000010    program     static C:\Users\kevin\Desktop\proyecto.X\pro.asm
                     EXIT   0x00002b    program     static C:\Users\kevin\Desktop\proyecto.X\pro.asm
                 INITTMR0   0x000270    program     static C:\Users\kevin\Desktop\proyecto.X\pro.asm
                 MAINLOOP   0x000054    program     static C:\Users\kevin\Desktop\proyecto.X\pro.asm
                      MAN   0x00001f    program     static C:\Users\kevin\Desktop\proyecto.X\pro.asm
                   MMODE1   0x000159    program     static C:\Users\kevin\Desktop\proyecto.X\pro.asm
                       NG   0x00001a    program     static C:\Users\kevin\Desktop\proyecto.X\pro.asm
                   NMODE1   0x000153    program     static C:\Users\kevin\Desktop\proyecto.X\pro.asm
                  NMODE10   0x00020e    program     static C:\Users\kevin\Desktop\proyecto.X\pro.asm
                   NMODE2   0x00016e    program     static C:\Users\kevin\Desktop\proyecto.X\pro.asm
                   NMODE3   0x000182    program     static C:\Users\kevin\Desktop\proyecto.X\pro.asm
                  NMODE31   0x000234    program     static C:\Users\kevin\Desktop\proyecto.X\pro.asm
                  NMODE32   0x00023c    program     static C:\Users\kevin\Desktop\proyecto.X\pro.asm
                   NMODE4   0x000196    program     static C:\Users\kevin\Desktop\proyecto.X\pro.asm
                   NMODE5   0x0001aa    program     static C:\Users\kevin\Desktop\proyecto.X\pro.asm
                  NMODE51   0x00024c    program     static C:\Users\kevin\Desktop\proyecto.X\pro.asm
                  NMODE52   0x000254    program     static C:\Users\kevin\Desktop\proyecto.X\pro.asm
                  NMODE58   0x000260    program     static C:\Users\kevin\Desktop\proyecto.X\pro.asm
                  NMODE59   0x00026c    program     static C:\Users\kevin\Desktop\proyecto.X\pro.asm
                   NMODE6   0x0001be    program     static C:\Users\kevin\Desktop\proyecto.X\pro.asm
                   NMODE7   0x0001d2    program     static C:\Users\kevin\Desktop\proyecto.X\pro.asm
                   NMODE8   0x0001e6    program     static C:\Users\kevin\Desktop\proyecto.X\pro.asm
                   NMODE9   0x0001fa    program     static C:\Users\kevin\Desktop\proyecto.X\pro.asm
                   PHASE1   0x000145    program     static C:\Users\kevin\Desktop\proyecto.X\pro.asm
                  PHASE10   0x000200    program     static C:\Users\kevin\Desktop\proyecto.X\pro.asm
                  PHASE11   0x000214    program     static C:\Users\kevin\Desktop\proyecto.X\pro.asm
                  PHASE18   0x000228    program     static C:\Users\kevin\Desktop\proyecto.X\pro.asm
                  PHASE19   0x00022c    program     static C:\Users\kevin\Desktop\proyecto.X\pro.asm
                   PHASE2   0x000160    program     static C:\Users\kevin\Desktop\proyecto.X\pro.asm
                   PHASE3   0x000174    program     static C:\Users\kevin\Desktop\proyecto.X\pro.asm
                  PHASE31   0x000230    program     static C:\Users\kevin\Desktop\proyecto.X\pro.asm
                  PHASE32   0x000238    program     static C:\Users\kevin\Desktop\proyecto.X\pro.asm
                  PHASE38   0x000240    program     static C:\Users\kevin\Desktop\proyecto.X\pro.asm
                  PHASE39   0x000244    program     static C:\Users\kevin\Desktop\proyecto.X\pro.asm
                   PHASE4   0x000188    program     static C:\Users\kevin\Desktop\proyecto.X\pro.asm
                   PHASE5   0x00019c    program     static C:\Users\kevin\Desktop\proyecto.X\pro.asm
                  PHASE51   0x000248    program     static C:\Users\kevin\Desktop\proyecto.X\pro.asm
                  PHASE52   0x000250    program     static C:\Users\kevin\Desktop\proyecto.X\pro.asm
                  PHASE58   0x000258    program     static C:\Users\kevin\Desktop\proyecto.X\pro.asm
                  PHASE59   0x000264    program     static C:\Users\kevin\Desktop\proyecto.X\pro.asm
                   PHASE6   0x0001b0    program     static C:\Users\kevin\Desktop\proyecto.X\pro.asm
                   PHASE7   0x0001c4    program     static C:\Users\kevin\Desktop\proyecto.X\pro.asm
                   PHASE8   0x0001d8    program     static C:\Users\kevin\Desktop\proyecto.X\pro.asm
                   PHASE9   0x0001ec    program     static C:\Users\kevin\Desktop\proyecto.X\pro.asm
                 PHASEOFF   0x000222    program     static C:\Users\kevin\Desktop\proyecto.X\pro.asm
                  PHASEON   0x000218    program     static C:\Users\kevin\Desktop\proyecto.X\pro.asm
                     RES1   0x00027e    program     static C:\Users\kevin\Desktop\proyecto.X\pro.asm
                     RES2   0x000280    program     static C:\Users\kevin\Desktop\proyecto.X\pro.asm
                 RESETLBL   0x000024    program     static C:\Users\kevin\Desktop\proyecto.X\pro.asm
                      SEC   0x000070    program     static C:\Users\kevin\Desktop\proyecto.X\pro.asm
                    SETUP   0x00002f    program     static C:\Users\kevin\Desktop\proyecto.X\pro.asm
                TIMECHECK   0x000077    program     static C:\Users\kevin\Desktop\proyecto.X\pro.asm
               TIMECHECK0   0x000078    program     static C:\Users\kevin\Desktop\proyecto.X\pro.asm
              TIMECHECK10   0x0000a5    program     static C:\Users\kevin\Desktop\proyecto.X\pro.asm
              TIMECHECK11   0x0000aa    program     static C:\Users\kevin\Desktop\proyecto.X\pro.asm
               TIMECHECK2   0x00007d    program     static C:\Users\kevin\Desktop\proyecto.X\pro.asm
              TIMECHECK21   0x0000af    program     static C:\Users\kevin\Desktop\proyecto.X\pro.asm
              TIMECHECK22   0x0000b4    program     static C:\Users\kevin\Desktop\proyecto.X\pro.asm
              TIMECHECK23   0x0000b9    program     static C:\Users\kevin\Desktop\proyecto.X\pro.asm
              TIMECHECK24   0x0000be    program     static C:\Users\kevin\Desktop\proyecto.X\pro.asm
              TIMECHECK25   0x0000c3    program     static C:\Users\kevin\Desktop\proyecto.X\pro.asm
              TIMECHECK26   0x0000c8    program     static C:\Users\kevin\Desktop\proyecto.X\pro.asm
              TIMECHECK27   0x0000cd    program     static C:\Users\kevin\Desktop\proyecto.X\pro.asm
              TIMECHECK28   0x0000d2    program     static C:\Users\kevin\Desktop\proyecto.X\pro.asm
              TIMECHECK29   0x0000d7    program     static C:\Users\kevin\Desktop\proyecto.X\pro.asm
               TIMECHECK3   0x000082    program     static C:\Users\kevin\Desktop\proyecto.X\pro.asm
              TIMECHECK30   0x0000dc    program     static C:\Users\kevin\Desktop\proyecto.X\pro.asm
              TIMECHECK31   0x0000e1    program     static C:\Users\kevin\Desktop\proyecto.X\pro.asm
              TIMECHECK32   0x0000e6    program     static C:\Users\kevin\Desktop\proyecto.X\pro.asm
              TIMECHECK33   0x0000eb    program     static C:\Users\kevin\Desktop\proyecto.X\pro.asm
              TIMECHECK34   0x0000f0    program     static C:\Users\kevin\Desktop\proyecto.X\pro.asm
              TIMECHECK35   0x0000f5    program     static C:\Users\kevin\Desktop\proyecto.X\pro.asm
              TIMECHECK36   0x0000fa    program     static C:\Users\kevin\Desktop\proyecto.X\pro.asm
              TIMECHECK37   0x0000ff    program     static C:\Users\kevin\Desktop\proyecto.X\pro.asm
              TIMECHECK38   0x000104    program     static C:\Users\kevin\Desktop\proyecto.X\pro.asm
              TIMECHECK39   0x000109    program     static C:\Users\kevin\Desktop\proyecto.X\pro.asm
               TIMECHECK4   0x000087    program     static C:\Users\kevin\Desktop\proyecto.X\pro.asm
              TIMECHECK40   0x00010e    program     static C:\Users\kevin\Desktop\proyecto.X\pro.asm
               TIMECHECK5   0x00008c    program     static C:\Users\kevin\Desktop\proyecto.X\pro.asm
               TIMECHECK6   0x000091    program     static C:\Users\kevin\Desktop\proyecto.X\pro.asm
               TIMECHECK7   0x000096    program     static C:\Users\kevin\Desktop\proyecto.X\pro.asm
               TIMECHECK8   0x00009b    program     static C:\Users\kevin\Desktop\proyecto.X\pro.asm
               TIMECHECK9   0x0000a0    program     static C:\Users\kevin\Desktop\proyecto.X\pro.asm
              TIMECHECKY1   0x000113    program     static C:\Users\kevin\Desktop\proyecto.X\pro.asm
             TIMECHECKY11   0x000127    program     static C:\Users\kevin\Desktop\proyecto.X\pro.asm
             TIMECHECKY12   0x00012c    program     static C:\Users\kevin\Desktop\proyecto.X\pro.asm
             TIMECHECKY13   0x000131    program     static C:\Users\kevin\Desktop\proyecto.X\pro.asm
             TIMECHECKY14   0x000136    program     static C:\Users\kevin\Desktop\proyecto.X\pro.asm
             TIMECHECKY15   0x00013b    program     static C:\Users\kevin\Desktop\proyecto.X\pro.asm
             TIMECHECKY16   0x000140    program     static C:\Users\kevin\Desktop\proyecto.X\pro.asm
              TIMECHECKY2   0x000118    program     static C:\Users\kevin\Desktop\proyecto.X\pro.asm
              TIMECHECKY3   0x00011d    program     static C:\Users\kevin\Desktop\proyecto.X\pro.asm
              TIMECHECKY4   0x000122    program     static C:\Users\kevin\Desktop\proyecto.X\pro.asm
                CHANGEVAR   0x000025       data     static C:\Users\kevin\Desktop\proyecto.X\pro.asm
                  CONTROL   0x000023       data     static C:\Users\kevin\Desktop\proyecto.X\pro.asm
                  COUNTER   0x000020       data     static C:\Users\kevin\Desktop\proyecto.X\pro.asm
                       D1   0x000029       data     static C:\Users\kevin\Desktop\proyecto.X\pro.asm
                       D2   0x000028       data     static C:\Users\kevin\Desktop\proyecto.X\pro.asm
              ONESECTIMER   0x000021       data     static C:\Users\kevin\Desktop\proyecto.X\pro.asm
               PHASETIMER   0x000022       data     static C:\Users\kevin\Desktop\proyecto.X\pro.asm
                 SECTIMER   0x000024       data     static C:\Users\kevin\Desktop\proyecto.X\pro.asm
             TIMERTWOFIVE   0x000027       data     static C:\Users\kevin\Desktop\proyecto.X\pro.asm
                       TM   0x000026       data     static C:\Users\kevin\Desktop\proyecto.X\pro.asm



                              Symbols - Sorted by Address
                     Name    Address   Location    Storage File                     
                ---------  ---------  ---------  --------- ---------                
                       DY   0x000010    program     static C:\Users\kevin\Desktop\proyecto.X\pro.asm
                       AN   0x000015    program     static C:\Users\kevin\Desktop\proyecto.X\pro.asm
                       NG   0x00001a    program     static C:\Users\kevin\Desktop\proyecto.X\pro.asm
                      MAN   0x00001f    program     static C:\Users\kevin\Desktop\proyecto.X\pro.asm
                 RESETLBL   0x000024    program     static C:\Users\kevin\Desktop\proyecto.X\pro.asm
                     EXIT   0x00002b    program     static C:\Users\kevin\Desktop\proyecto.X\pro.asm
                    SETUP   0x00002f    program     static C:\Users\kevin\Desktop\proyecto.X\pro.asm
                 MAINLOOP   0x000054    program     static C:\Users\kevin\Desktop\proyecto.X\pro.asm
                CHECKT0IF   0x00005e    program     static C:\Users\kevin\Desktop\proyecto.X\pro.asm
                      SEC   0x000070    program     static C:\Users\kevin\Desktop\proyecto.X\pro.asm
                TIMECHECK   0x000077    program     static C:\Users\kevin\Desktop\proyecto.X\pro.asm
               TIMECHECK0   0x000078    program     static C:\Users\kevin\Desktop\proyecto.X\pro.asm
               TIMECHECK2   0x00007d    program     static C:\Users\kevin\Desktop\proyecto.X\pro.asm
               TIMECHECK3   0x000082    program     static C:\Users\kevin\Desktop\proyecto.X\pro.asm
               TIMECHECK4   0x000087    program     static C:\Users\kevin\Desktop\proyecto.X\pro.asm
               TIMECHECK5   0x00008c    program     static C:\Users\kevin\Desktop\proyecto.X\pro.asm
               TIMECHECK6   0x000091    program     static C:\Users\kevin\Desktop\proyecto.X\pro.asm
               TIMECHECK7   0x000096    program     static C:\Users\kevin\Desktop\proyecto.X\pro.asm
               TIMECHECK8   0x00009b    program     static C:\Users\kevin\Desktop\proyecto.X\pro.asm
               TIMECHECK9   0x0000a0    program     static C:\Users\kevin\Desktop\proyecto.X\pro.asm
              TIMECHECK10   0x0000a5    program     static C:\Users\kevin\Desktop\proyecto.X\pro.asm
              TIMECHECK11   0x0000aa    program     static C:\Users\kevin\Desktop\proyecto.X\pro.asm
              TIMECHECK21   0x0000af    program     static C:\Users\kevin\Desktop\proyecto.X\pro.asm
              TIMECHECK22   0x0000b4    program     static C:\Users\kevin\Desktop\proyecto.X\pro.asm
              TIMECHECK23   0x0000b9    program     static C:\Users\kevin\Desktop\proyecto.X\pro.asm
              TIMECHECK24   0x0000be    program     static C:\Users\kevin\Desktop\proyecto.X\pro.asm
              TIMECHECK25   0x0000c3    program     static C:\Users\kevin\Desktop\proyecto.X\pro.asm
              TIMECHECK26   0x0000c8    program     static C:\Users\kevin\Desktop\proyecto.X\pro.asm
              TIMECHECK27   0x0000cd    program     static C:\Users\kevin\Desktop\proyecto.X\pro.asm
              TIMECHECK28   0x0000d2    program     static C:\Users\kevin\Desktop\proyecto.X\pro.asm
              TIMECHECK29   0x0000d7    program     static C:\Users\kevin\Desktop\proyecto.X\pro.asm
              TIMECHECK30   0x0000dc    program     static C:\Users\kevin\Desktop\proyecto.X\pro.asm
              TIMECHECK31   0x0000e1    program     static C:\Users\kevin\Desktop\proyecto.X\pro.asm
              TIMECHECK32   0x0000e6    program     static C:\Users\kevin\Desktop\proyecto.X\pro.asm
              TIMECHECK33   0x0000eb    program     static C:\Users\kevin\Desktop\proyecto.X\pro.asm
              TIMECHECK34   0x0000f0    program     static C:\Users\kevin\Desktop\proyecto.X\pro.asm
              TIMECHECK35   0x0000f5    program     static C:\Users\kevin\Desktop\proyecto.X\pro.asm
              TIMECHECK36   0x0000fa    program     static C:\Users\kevin\Desktop\proyecto.X\pro.asm
              TIMECHECK37   0x0000ff    program     static C:\Users\kevin\Desktop\proyecto.X\pro.asm
              TIMECHECK38   0x000104    program     static C:\Users\kevin\Desktop\proyecto.X\pro.asm
              TIMECHECK39   0x000109    program     static C:\Users\kevin\Desktop\proyecto.X\pro.asm
              TIMECHECK40   0x00010e    program     static C:\Users\kevin\Desktop\proyecto.X\pro.asm
              TIMECHECKY1   0x000113    program     static C:\Users\kevin\Desktop\proyecto.X\pro.asm
              TIMECHECKY2   0x000118    program     static C:\Users\kevin\Desktop\proyecto.X\pro.asm
              TIMECHECKY3   0x00011d    program     static C:\Users\kevin\Desktop\proyecto.X\pro.asm
              TIMECHECKY4   0x000122    program     static C:\Users\kevin\Desktop\proyecto.X\pro.asm
             TIMECHECKY11   0x000127    program     static C:\Users\kevin\Desktop\proyecto.X\pro.asm
             TIMECHECKY12   0x00012c    program     static C:\Users\kevin\Desktop\proyecto.X\pro.asm
             TIMECHECKY13   0x000131    program     static C:\Users\kevin\Desktop\proyecto.X\pro.asm
             TIMECHECKY14   0x000136    program     static C:\Users\kevin\Desktop\proyecto.X\pro.asm
             TIMECHECKY15   0x00013b    program     static C:\Users\kevin\Desktop\proyecto.X\pro.asm
             TIMECHECKY16   0x000140    program     static C:\Users\kevin\Desktop\proyecto.X\pro.asm
                   PHASE1   0x000145    program     static C:\Users\kevin\Desktop\proyecto.X\pro.asm
                   DMODE1   0x000147    program     static C:\Users\kevin\Desktop\proyecto.X\pro.asm
                   AMODE1   0x00014d    program     static C:\Users\kevin\Desktop\proyecto.X\pro.asm
                   NMODE1   0x000153    program     static C:\Users\kevin\Desktop\proyecto.X\pro.asm
                   MMODE1   0x000159    program     static C:\Users\kevin\Desktop\proyecto.X\pro.asm
                   PHASE2   0x000160    program     static C:\Users\kevin\Desktop\proyecto.X\pro.asm
                   DMODE2   0x000162    program     static C:\Users\kevin\Desktop\proyecto.X\pro.asm
                   AMODE2   0x000168    program     static C:\Users\kevin\Desktop\proyecto.X\pro.asm
                   NMODE2   0x00016e    program     static C:\Users\kevin\Desktop\proyecto.X\pro.asm
                   PHASE3   0x000174    program     static C:\Users\kevin\Desktop\proyecto.X\pro.asm
                   DMODE3   0x000176    program     static C:\Users\kevin\Desktop\proyecto.X\pro.asm
                   AMODE3   0x00017c    program     static C:\Users\kevin\Desktop\proyecto.X\pro.asm
                   NMODE3   0x000182    program     static C:\Users\kevin\Desktop\proyecto.X\pro.asm
                   PHASE4   0x000188    program     static C:\Users\kevin\Desktop\proyecto.X\pro.asm
                   DMODE4   0x00018a    program     static C:\Users\kevin\Desktop\proyecto.X\pro.asm
                   AMODE4   0x000190    program     static C:\Users\kevin\Desktop\proyecto.X\pro.asm
                   NMODE4   0x000196    program     static C:\Users\kevin\Desktop\proyecto.X\pro.asm
                   PHASE5   0x00019c    program     static C:\Users\kevin\Desktop\proyecto.X\pro.asm
                   DMODE5   0x00019e    program     static C:\Users\kevin\Desktop\proyecto.X\pro.asm
                   AMODE5   0x0001a4    program     static C:\Users\kevin\Desktop\proyecto.X\pro.asm
                   NMODE5   0x0001aa    program     static C:\Users\kevin\Desktop\proyecto.X\pro.asm
                   PHASE6   0x0001b0    program     static C:\Users\kevin\Desktop\proyecto.X\pro.asm
                   DMODE6   0x0001b2    program     static C:\Users\kevin\Desktop\proyecto.X\pro.asm
                   AMODE6   0x0001b8    program     static C:\Users\kevin\Desktop\proyecto.X\pro.asm
                   NMODE6   0x0001be    program     static C:\Users\kevin\Desktop\proyecto.X\pro.asm
                   PHASE7   0x0001c4    program     static C:\Users\kevin\Desktop\proyecto.X\pro.asm
                   DMODE7   0x0001c6    program     static C:\Users\kevin\Desktop\proyecto.X\pro.asm
                   AMODE7   0x0001cc    program     static C:\Users\kevin\Desktop\proyecto.X\pro.asm
                   NMODE7   0x0001d2    program     static C:\Users\kevin\Desktop\proyecto.X\pro.asm
                   PHASE8   0x0001d8    program     static C:\Users\kevin\Desktop\proyecto.X\pro.asm
                   DMODE8   0x0001da    program     static C:\Users\kevin\Desktop\proyecto.X\pro.asm
                   AMODE8   0x0001e0    program     static C:\Users\kevin\Desktop\proyecto.X\pro.asm
                   NMODE8   0x0001e6    program     static C:\Users\kevin\Desktop\proyecto.X\pro.asm
                   PHASE9   0x0001ec    program     static C:\Users\kevin\Desktop\proyecto.X\pro.asm
                   DMODE9   0x0001ee    program     static C:\Users\kevin\Desktop\proyecto.X\pro.asm
                   AMODE9   0x0001f4    program     static C:\Users\kevin\Desktop\proyecto.X\pro.asm
                   NMODE9   0x0001fa    program     static C:\Users\kevin\Desktop\proyecto.X\pro.asm
                  PHASE10   0x000200    program     static C:\Users\kevin\Desktop\proyecto.X\pro.asm
                  DMODE10   0x000202    program     static C:\Users\kevin\Desktop\proyecto.X\pro.asm
                  AMODE10   0x000208    program     static C:\Users\kevin\Desktop\proyecto.X\pro.asm
                  NMODE10   0x00020e    program     static C:\Users\kevin\Desktop\proyecto.X\pro.asm
                  PHASE11   0x000214    program     static C:\Users\kevin\Desktop\proyecto.X\pro.asm
                  PHASEON   0x000218    program     static C:\Users\kevin\Desktop\proyecto.X\pro.asm
                 PHASEOFF   0x000222    program     static C:\Users\kevin\Desktop\proyecto.X\pro.asm
                  PHASE18   0x000228    program     static C:\Users\kevin\Desktop\proyecto.X\pro.asm
                  PHASE19   0x00022c    program     static C:\Users\kevin\Desktop\proyecto.X\pro.asm
                  PHASE31   0x000230    program     static C:\Users\kevin\Desktop\proyecto.X\pro.asm
                  NMODE31   0x000234    program     static C:\Users\kevin\Desktop\proyecto.X\pro.asm
                  PHASE32   0x000238    program     static C:\Users\kevin\Desktop\proyecto.X\pro.asm
                  NMODE32   0x00023c    program     static C:\Users\kevin\Desktop\proyecto.X\pro.asm
                  PHASE38   0x000240    program     static C:\Users\kevin\Desktop\proyecto.X\pro.asm
                  PHASE39   0x000244    program     static C:\Users\kevin\Desktop\proyecto.X\pro.asm
                  PHASE51   0x000248    program     static C:\Users\kevin\Desktop\proyecto.X\pro.asm
                  NMODE51   0x00024c    program     static C:\Users\kevin\Desktop\proyecto.X\pro.asm
                  PHASE52   0x000250    program     static C:\Users\kevin\Desktop\proyecto.X\pro.asm
                  NMODE52   0x000254    program     static C:\Users\kevin\Desktop\proyecto.X\pro.asm
                  PHASE58   0x000258    program     static C:\Users\kevin\Desktop\proyecto.X\pro.asm
                  AMODE58   0x00025c    program     static C:\Users\kevin\Desktop\proyecto.X\pro.asm
                  NMODE58   0x000260    program     static C:\Users\kevin\Desktop\proyecto.X\pro.asm
                  PHASE59   0x000264    program     static C:\Users\kevin\Desktop\proyecto.X\pro.asm
                  AMODE59   0x000268    program     static C:\Users\kevin\Desktop\proyecto.X\pro.asm
                  NMODE59   0x00026c    program     static C:\Users\kevin\Desktop\proyecto.X\pro.asm
                 INITTMR0   0x000270    program     static C:\Users\kevin\Desktop\proyecto.X\pro.asm
                    DELAY   0x00027c    program     static C:\Users\kevin\Desktop\proyecto.X\pro.asm
                     RES1   0x00027e    program     static C:\Users\kevin\Desktop\proyecto.X\pro.asm
                     RES2   0x000280    program     static C:\Users\kevin\Desktop\proyecto.X\pro.asm
                  COUNTER   0x000020       data     static C:\Users\kevin\Desktop\proyecto.X\pro.asm
              ONESECTIMER   0x000021       data     static C:\Users\kevin\Desktop\proyecto.X\pro.asm
               PHASETIMER   0x000022       data     static C:\Users\kevin\Desktop\proyecto.X\pro.asm
                  CONTROL   0x000023       data     static C:\Users\kevin\Desktop\proyecto.X\pro.asm
                 SECTIMER   0x000024       data     static C:\Users\kevin\Desktop\proyecto.X\pro.asm
                CHANGEVAR   0x000025       data     static C:\Users\kevin\Desktop\proyecto.X\pro.asm
                       TM   0x000026       data     static C:\Users\kevin\Desktop\proyecto.X\pro.asm
             TIMERTWOFIVE   0x000027       data     static C:\Users\kevin\Desktop\proyecto.X\pro.asm
                       D2   0x000028       data     static C:\Users\kevin\Desktop\proyecto.X\pro.asm
                       D1   0x000029       data     static C:\Users\kevin\Desktop\proyecto.X\pro.asm


